; ModuleID = '49/1187.c'
source_filename = "49/1187.c"
target datalayout = "e-m:e-p270:32:32-p271:32:32-p272:64:64-i64:64-f80:128-n8:16:32:64-S128"
target triple = "x86_64-pc-linux-gnu"

@.str = private unnamed_addr constant [3 x i8] c"%c\00", align 1
@.str.1 = private unnamed_addr constant [2 x i8] c"\0A\00", align 1

; Function Attrs: noinline nounwind uwtable
define dso_local i32 @main() #0 {
  %1 = alloca i32, align 4
  %2 = alloca [500 x i8], align 16
  %3 = alloca [500 x i8], align 16
  %4 = alloca [500 x i8], align 16
  %5 = alloca i32, align 4
  %6 = alloca i32, align 4
  %7 = alloca i32, align 4
  %8 = alloca i32, align 4
  %9 = alloca i32, align 4
  %10 = alloca i32, align 4
  %11 = alloca i32, align 4
  %12 = alloca i32, align 4
  store i32 0, i32* %1, align 4
  %13 = getelementptr inbounds [500 x i8], [500 x i8]* %2, i64 0, i64 0
  %14 = call i32 (i8*, ...) bitcast (i32 (...)* @gets to i32 (i8*, ...)*)(i8* %13)
  %15 = getelementptr inbounds [500 x i8], [500 x i8]* %2, i64 0, i64 0
  %16 = call i64 @strlen(i8* %15) #3
  %17 = trunc i64 %16 to i32
  store i32 %17, i32* %12, align 4
  store i32 1, i32* %5, align 4
  br label %18

18:                                               ; preds = %123, %0
  %19 = load i32, i32* %5, align 4
  %20 = load i32, i32* %12, align 4
  %21 = icmp slt i32 %19, %20
  br i1 %21, label %22, label %126

22:                                               ; preds = %18
  store i32 0, i32* %7, align 4
  br label %23

23:                                               ; preds = %119, %22
  %24 = load i32, i32* %7, align 4
  %25 = load i32, i32* %12, align 4
  %26 = load i32, i32* %5, align 4
  %27 = sub nsw i32 %25, %26
  %28 = icmp slt i32 %24, %27
  br i1 %28, label %29, label %122

29:                                               ; preds = %23
  store i32 0, i32* %9, align 4
  store i32 0, i32* %11, align 4
  %30 = load i32, i32* %7, align 4
  store i32 %30, i32* %6, align 4
  br label %31

31:                                               ; preds = %47, %29
  %32 = load i32, i32* %6, align 4
  %33 = load i32, i32* %7, align 4
  %34 = load i32, i32* %5, align 4
  %35 = add nsw i32 %33, %34
  %36 = icmp sle i32 %32, %35
  br i1 %36, label %37, label %50

37:                                               ; preds = %31
  %38 = load i32, i32* %6, align 4
  %39 = sext i32 %38 to i64
  %40 = getelementptr inbounds [500 x i8], [500 x i8]* %2, i64 0, i64 %39
  %41 = load i8, i8* %40, align 1
  %42 = load i32, i32* %9, align 4
  %43 = sext i32 %42 to i64
  %44 = getelementptr inbounds [500 x i8], [500 x i8]* %3, i64 0, i64 %43
  store i8 %41, i8* %44, align 1
  %45 = load i32, i32* %9, align 4
  %46 = add nsw i32 %45, 1
  store i32 %46, i32* %9, align 4
  br label %47

47:                                               ; preds = %37
  %48 = load i32, i32* %6, align 4
  %49 = add nsw i32 %48, 1
  store i32 %49, i32* %6, align 4
  br label %31

50:                                               ; preds = %31
  store i32 0, i32* %8, align 4
  br label %51

51:                                               ; preds = %66, %50
  %52 = load i32, i32* %8, align 4
  %53 = load i32, i32* %9, align 4
  %54 = icmp slt i32 %52, %53
  br i1 %54, label %55, label %69

55:                                               ; preds = %51
  %56 = load i32, i32* %9, align 4
  %57 = sub nsw i32 %56, 1
  %58 = load i32, i32* %8, align 4
  %59 = sub nsw i32 %57, %58
  %60 = sext i32 %59 to i64
  %61 = getelementptr inbounds [500 x i8], [500 x i8]* %3, i64 0, i64 %60
  %62 = load i8, i8* %61, align 1
  %63 = load i32, i32* %8, align 4
  %64 = sext i32 %63 to i64
  %65 = getelementptr inbounds [500 x i8], [500 x i8]* %4, i64 0, i64 %64
  store i8 %62, i8* %65, align 1
  br label %66

66:                                               ; preds = %55
  %67 = load i32, i32* %8, align 4
  %68 = add nsw i32 %67, 1
  store i32 %68, i32* %8, align 4
  br label %51

69:                                               ; preds = %51
  store i32 0, i32* %10, align 4
  br label %70

70:                                               ; preds = %92, %69
  %71 = load i32, i32* %10, align 4
  %72 = load i32, i32* %9, align 4
  %73 = icmp slt i32 %71, %72
  br i1 %73, label %74, label %95

74:                                               ; preds = %70
  %75 = load i32, i32* %10, align 4
  %76 = sext i32 %75 to i64
  %77 = getelementptr inbounds [500 x i8], [500 x i8]* %3, i64 0, i64 %76
  %78 = load i8, i8* %77, align 1
  %79 = sext i8 %78 to i32
  %80 = load i32, i32* %10, align 4
  %81 = sext i32 %80 to i64
  %82 = getelementptr inbounds [500 x i8], [500 x i8]* %4, i64 0, i64 %81
  %83 = load i8, i8* %82, align 1
  %84 = sext i8 %83 to i32
  %85 = icmp ne i32 %79, %84
  br i1 %85, label %86, label %89

86:                                               ; preds = %74
  %87 = load i32, i32* %11, align 4
  %88 = add nsw i32 %87, 1
  store i32 %88, i32* %11, align 4
  br label %91

89:                                               ; preds = %74
  %90 = load i32, i32* %11, align 4
  store i32 %90, i32* %11, align 4
  br label %91

91:                                               ; preds = %89, %86
  br label %92

92:                                               ; preds = %91
  %93 = load i32, i32* %10, align 4
  %94 = add nsw i32 %93, 1
  store i32 %94, i32* %10, align 4
  br label %70

95:                                               ; preds = %70
  %96 = load i32, i32* %11, align 4
  %97 = icmp eq i32 %96, 0
  br i1 %97, label %98, label %118

98:                                               ; preds = %95
  %99 = load i32, i32* %7, align 4
  store i32 %99, i32* %6, align 4
  br label %100

100:                                              ; preds = %113, %98
  %101 = load i32, i32* %6, align 4
  %102 = load i32, i32* %7, align 4
  %103 = load i32, i32* %5, align 4
  %104 = add nsw i32 %102, %103
  %105 = icmp sle i32 %101, %104
  br i1 %105, label %106, label %116

106:                                              ; preds = %100
  %107 = load i32, i32* %6, align 4
  %108 = sext i32 %107 to i64
  %109 = getelementptr inbounds [500 x i8], [500 x i8]* %2, i64 0, i64 %108
  %110 = load i8, i8* %109, align 1
  %111 = sext i8 %110 to i32
  %112 = call i32 (i8*, ...) @printf(i8* getelementptr inbounds ([3 x i8], [3 x i8]* @.str, i64 0, i64 0), i32 %111)
  br label %113

113:                                              ; preds = %106
  %114 = load i32, i32* %6, align 4
  %115 = add nsw i32 %114, 1
  store i32 %115, i32* %6, align 4
  br label %100

116:                                              ; preds = %100
  %117 = call i32 (i8*, ...) @printf(i8* getelementptr inbounds ([2 x i8], [2 x i8]* @.str.1, i64 0, i64 0))
  br label %118

118:                                              ; preds = %116, %95
  br label %119

119:                                              ; preds = %118
  %120 = load i32, i32* %7, align 4
  %121 = add nsw i32 %120, 1
  store i32 %121, i32* %7, align 4
  br label %23

122:                                              ; preds = %23
  br label %123

123:                                              ; preds = %122
  %124 = load i32, i32* %5, align 4
  %125 = add nsw i32 %124, 1
  store i32 %125, i32* %5, align 4
  br label %18

126:                                              ; preds = %18
  ret i32 0
}

declare dso_local i32 @gets(...) #1

; Function Attrs: nounwind readonly
declare dso_local i64 @strlen(i8*) #2

declare dso_local i32 @printf(i8*, ...) #1


!llvm.module.flags = !{!0}
!llvm.ident = !{!1}

!0 = !{i32 1, !"wchar_size", i32 4}
!1 = !{!"clang version 10.0.0-4ubuntu1 "}
